; Function Attrs: null_pointer_is_valid sspstrong uwtable
define internal fastcc void @parse_DETH(ptr noundef %0, ptr noundef captures(none) initializes((284, 288)) %1, ptr noundef %2, ptr noundef captures(none) %3) unnamed_addr #0 {
  %5 = load i32, ptr %3, align 4
  %6 = getelementptr inbounds nuw i8, ptr %1, i64 8
  %7 = load ptr, ptr %6, align 8
  tail call void @col_append_str(ptr noundef %7, i32 noundef 25, ptr noundef nonnull @.str.323)
  %8 = load i32, ptr @hf_opa_DETH, align 4
  %9 = tail call ptr @proto_tree_add_item(ptr noundef %2, i32 noundef %8, ptr noundef %0, i32 noundef %5, i32 noundef 8, i32 noundef 0)
  %10 = load i32, ptr @ett_deth, align 4
  %11 = tail call ptr @proto_item_add_subtree(ptr noundef %9, i32 noundef %10)
  %12 = load i32, ptr @hf_opa_DETH_queue_key, align 4
  %13 = tail call ptr @proto_tree_add_item(ptr noundef %11, i32 noundef %12, ptr noundef %0, i32 noundef %5, i32 noundef 4, i32 noundef 0)
  %14 = add i32 %5, 4
  %15 = load i32, ptr @hf_opa_DETH_reserved8, align 4
  %16 = tail call ptr @proto_tree_add_item(ptr noundef %11, i32 noundef %15, ptr noundef %0, i32 noundef %14, i32 noundef 1, i32 noundef 0)
  %17 = add i32 %5, 5
  %18 = load i32, ptr @hf_opa_DETH_source_qp, align 4
  %19 = tail call ptr @proto_tree_add_item(ptr noundef %11, i32 noundef %18, ptr noundef %0, i32 noundef %17, i32 noundef 3, i32 noundef 0)
  %20 = tail call i32 @tvb_get_ntoh24(ptr noundef %0, i32 noundef %17)
  %21 = getelementptr inbounds nuw i8, ptr %1, i64 284
  store i32 %20, ptr %21, align 4
  %22 = add i32 %5, 8
  store i32 %22, ptr %3, align 4
  ret void
}